target datalayout = "e-m:e-p270:32:32-p271:32:32-p272:64:64-i64:64-i128:128-f80:128-n8:16:32:64-S128"
target triple = "x86_64-pc-linux-gnu"

%struct.ExprEvalStep = type { i64, ptr, ptr, %union.anon }
%union.anon = type { %struct.anon.23 }
%struct.anon.23 = type { ptr, ptr, i32, i32, ptr, ptr }
%struct.anon.28 = type { ptr, ptr, ptr, i32, ptr }

@.str.1 = private unnamed_addr constant [17 x i8] c"execExprInterp.c\00", align 1
@.str.15 = private unnamed_addr constant [37 x i8] c"domain %s does not allow null values\00", align 1
@__func__.ExecEvalConstraintNotNull = private unnamed_addr constant [26 x i8] c"ExecEvalConstraintNotNull\00", align 1

; Function Attrs: nounwind uwtable
define dso_local void @ExecEvalConstraintNotNull(ptr noundef %0, ptr noundef %1) #0 {
  %3 = alloca ptr, align 8
  %4 = alloca ptr, align 8
  %5 = alloca ptr, align 8
  store ptr %0, ptr %3, align 8
  store ptr %1, ptr %4, align 8
  %6 = load ptr, ptr %4, align 8
  %7 = getelementptr inbounds nuw %struct.ExprEvalStep, ptr %6, i32 0, i32 2
  %8 = load ptr, ptr %7, align 8
  %9 = load i8, ptr %8, align 1, !range !7, !noundef !8
  %10 = trunc i8 %9 to i1
  br i1 %10, label %11, label %35

11:                                               ; preds = %2
  br label %12

12:                                               ; preds = %11
  call void @llvm.lifetime.start.p0(i64 8, ptr %5) #11
  %13 = load ptr, ptr %4, align 8
  %14 = getelementptr inbounds nuw %struct.ExprEvalStep, ptr %13, i32 0, i32 3
  %15 = getelementptr inbounds nuw %struct.anon.28, ptr %14, i32 0, i32 4
  %16 = load ptr, ptr %15, align 8
  store ptr %16, ptr %5, align 8
  %17 = load ptr, ptr %5, align 8
  %18 = call zeroext i1 @errsave_start(ptr noundef %17, ptr noundef null)
  br i1 %18, label %19, label %33

19:                                               ; preds = %12
  %20 = call i32 @errcode(i32 noundef 33575106)
  %21 = load ptr, ptr %4, align 8
  %22 = getelementptr inbounds nuw %struct.ExprEvalStep, ptr %21, i32 0, i32 3
  %23 = getelementptr inbounds nuw %struct.anon.28, ptr %22, i32 0, i32 3
  %24 = load i32, ptr %23, align 8
  %25 = call ptr @format_type_be(i32 noundef %24)
  %26 = call i32 (ptr, ...) @errmsg(ptr noundef @.str.15, ptr noundef %25)
  %27 = load ptr, ptr %4, align 8
  %28 = getelementptr inbounds nuw %struct.ExprEvalStep, ptr %27, i32 0, i32 3
  %29 = getelementptr inbounds nuw %struct.anon.28, ptr %28, i32 0, i32 3
  %30 = load i32, ptr %29, align 8
  %31 = call i32 @errdatatype(i32 noundef %30)
  %32 = load ptr, ptr %5, align 8
  call void @errsave_finish(ptr noundef %32, ptr noundef @.str.1, i32 noundef 4334, ptr noundef @__func__.ExecEvalConstraintNotNull)
  br label %33

33:                                               ; preds = %19, %12
  call void @llvm.lifetime.end.p0(i64 8, ptr %5) #11
  br label %34

34:                                               ; preds = %33
  br label %35

35:                                               ; preds = %34, %2
  ret void
}