; Function Attrs: nounwind uwtable
define dso_local void @ExecEvalConstraintNotNull(ptr noundef readnone captures(none) %0, ptr noundef readonly captures(none) %1) local_unnamed_addr #0 {
  %3 = getelementptr inbounds nuw i8, ptr %1, i64 16
  %4 = load ptr, ptr %3, align 8
  %5 = load i8, ptr %4, align 1, !range !8, !noundef !9
  %6 = trunc nuw i8 %5 to i1
  br i1 %6, label %7, label %19

7:                                                ; preds = %2
  %8 = getelementptr inbounds nuw i8, ptr %1, i64 56
  %9 = load ptr, ptr %8, align 8
  %10 = tail call zeroext i1 @errsave_start(ptr noundef %9, ptr noundef null) #18
  br i1 %10, label %11, label %19

11:                                               ; preds = %7
  %12 = tail call i32 @errcode(i32 noundef 33575106) #18
  %13 = getelementptr inbounds nuw i8, ptr %1, i64 48
  %14 = load i32, ptr %13, align 8
  %15 = tail call ptr @format_type_be(i32 noundef %14) #18
  %16 = tail call i32 (ptr, ...) @errmsg(ptr noundef nonnull @.str.15, ptr noundef %15) #18
  %17 = load i32, ptr %13, align 8
  %18 = tail call i32 @errdatatype(i32 noundef %17) #18
  tail call void @errsave_finish(ptr noundef %9, ptr noundef nonnull @.str.1, i32 noundef 4334, ptr noundef nonnull @__func__.ExecEvalConstraintNotNull) #18
  br label %19

19:                                               ; preds = %7, %11, %2
  ret void
}